target datalayout = "e-m:e-p270:32:32-p271:32:32-p272:64:64-i64:64-i128:128-f80:128-n8:16:32:64-S128"
target triple = "x86_64-unknown-linux-gnu"

%struct.redisServer = type { i32, i64, ptr, ptr, ptr, i32, i32, i32, i32, i32, ptr, ptr, ptr, ptr, ptr, ptr, i32, i32, i64, i32, i32, i32, i32, ptr, i32, i32, [41 x i8], i32, i64, i32, i32, i32, ptr, ptr, i32, i32, i64, ptr, ptr, ptr, ptr, [2 x i32], i32, i32, i32, i32, i32, [16 x ptr], i32, ptr, ptr, i32, [8 x %struct.connListener], i32, %struct.connListener, ptr, ptr, ptr, ptr, ptr, ptr, ptr, ptr, ptr, ptr, i32, ptr, i32, ptr, [3 x %struct.pause_event], [256 x i8], ptr, i64, i32, i32, i32, i32, i64, i32, i32, i32, i32, i32, i64, i64, i64, i64, i64, i64, i64, i64, i64, double, i64, i64, i64, i64, i64, i64, i64, i64, i64, i64, i64, i64, i64, i64, i64, i64, i64, i64, i64, i64, double, i64, i64, i64, i64, i64, ptr, i64, i64, i64, %struct.malloc_stats, i64, i64, i64, i64, i64, i64, i64, i64, i64, i64, i64, i64, double, [4 x i64], i64, i64, i64, i64, i64, i64, i64, i64, i64, i64, [7 x %struct.anon], i64, i64, i64, i64, i64, i64, [4 x %struct.durationStats], i32, i32, i32, i32, i32, i32, i32, i32, i32, i32, i64, i32, i32, i32, i32, i64, i64, i32, i32, i32, i32, i32, ptr, [3 x %struct.clientBufferLimitsConfig], i32, i32, ptr, i32, i32, i32, i32, ptr, ptr, i32, i32, i64, i64, i64, i64, i64, i32, i32, ptr, i32, i32, i64, i64, i64, i64, i64, i32, i32, i64, i32, i32, i32, i32, i32, i32, i32, i32, ptr, i32, i64, i64, i64, i64, ptr, i32, ptr, i32, i32, i32, i64, i64, i64, i64, i32, i32, i32, i32, i32, i32, ptr, i32, i32, ptr, i32, i32, i32, [2 x i32], i32, %struct.redisOpArray, i32, ptr, i32, ptr, i32, i32, i32, i32, i32, i32, i32, [41 x i8], [41 x i8], i64, i64, i64, i64, i32, i32, ptr, i64, i64, i64, i32, i32, i32, i32, i32, i32, i32, i64, ptr, ptr, ptr, ptr, i32, i32, ptr, ptr, i32, i32, i64, i64, i64, ptr, i32, ptr, i64, i32, i32, i32, i64, i32, i32, i32, i32, ptr, i32, i32, [41 x i8], i64, i32, ptr, i32, i32, i64, i64, i32, i32, i32, i32, i32, i64, [3 x i32], i32, i32, i32, [9 x i32], ptr, ptr, i32, i64, ptr, ptr, i32, i32, i32, i32, i64, i64, i64, i64, i64, i64, i64, i64, i64, i64, i32, i32, i64, i64, i32, i64, i64, i64, i64, i64, ptr, ptr, i32, ptr, i32, i32, i32, i64, i64, ptr, ptr, i32, i32, i32, i32, i32, ptr, ptr, ptr, i32, i32, i32, i32, i32, i32, i32, i64, i32, i64, i32, i32, i32, i32, i32, i32, i32, i64, ptr, ptr, i64, ptr, i32, %struct.aclInfo, i32, i64, i32, i32, i32, %struct.redisTLSContextConfig, ptr, ptr, ptr, ptr, ptr, i64, i32, ptr, i32, i32, i32, i64, i32, ptr }
%struct.connListener = type { [16 x i32], i32, ptr, i32, i32, ptr, ptr }
%struct.pause_event = type { i32, i64 }
%struct.malloc_stats = type { i64, i64, i64, i64, i64 }
%struct.anon = type { i64, i64, [16 x i64], i32 }
%struct.durationStats = type { i64, i64, i64 }
%struct.clientBufferLimitsConfig = type { i64, i64, i64 }
%struct.redisOpArray = type { ptr, i32, i32 }
%struct.aclInfo = type { i64, i64, i64, i64 }
%struct.redisTLSContextConfig = type { ptr, ptr, ptr, ptr, ptr, ptr, ptr, ptr, ptr, ptr, ptr, ptr, i32, i32, i32, i32 }
%struct.client = type { i64, i64, ptr, i32, ptr, ptr, ptr, ptr, ptr, i64, i64, i32, ptr, i32, i32, ptr, i64, ptr, ptr, ptr, ptr, i32, i32, i64, ptr, i64, ptr, i64, i64, i64, i32, ptr, i64, i64, i32, i32, i32, i32, i64, i64, ptr, i64, i64, i64, i64, i64, i64, i64, i64, [41 x i8], i32, ptr, i32, i32, %struct.multiState, %struct.blockingState, i64, ptr, ptr, ptr, ptr, ptr, ptr, ptr, ptr, ptr, ptr, ptr, ptr, ptr, ptr, i64, ptr, i64, i32, ptr, ptr, ptr, i64, %struct.listNode, i64, i64, i32, i64, ptr }
%struct.multiState = type { ptr, i32, i32, i32, i64, i32 }
%struct.blockingState = type { i32, i64, i32, ptr, i32, i32, i64, ptr, ptr }
%struct.listNode = type { ptr, ptr, ptr }
%struct.connection = type { ptr, i32, i32, i32, i16, i16, i16, ptr, ptr, ptr, ptr }
%struct.ConnectionType = type { ptr, ptr, ptr, ptr, ptr, ptr, ptr, ptr, ptr, ptr, ptr, ptr, ptr, ptr, ptr, ptr, ptr, ptr, ptr, ptr, ptr, ptr, ptr, ptr, ptr, ptr, ptr, ptr }

@server = external global %struct.redisServer, align 8
@.str.192 = private unnamed_addr constant [43 x i8] c"Reconnecting to MASTER %s:%d after failure\00", align 1
@.str.193 = private unnamed_addr constant [27 x i8] c"Connecting to MASTER %s:%d\00", align 1
@.str.219 = private unnamed_addr constant [43 x i8] c"Discarding previously cached master state.\00", align 1

; Function Attrs: nounwind uwtable
define internal void @connClose(ptr noundef %conn) #0 {
entry:
  %conn.addr = alloca ptr, align 8
  store ptr %conn, ptr %conn.addr, align 8
  %0 = load ptr, ptr %conn.addr, align 8
  %type = getelementptr inbounds %struct.connection, ptr %0, i32 0, i32 0
  %1 = load ptr, ptr %type, align 8
  %close = getelementptr inbounds %struct.ConnectionType, ptr %1, i32 0, i32 12
  %2 = load ptr, ptr %close, align 8
  %3 = load ptr, ptr %conn.addr, align 8
  call void %2(ptr noundef %3)
  ret void
}

; Function Attrs: nounwind uwtable
define dso_local void @undoConnectWithMaster() #0 {
entry:
  %0 = load ptr, ptr getelementptr inbounds (%struct.redisServer, ptr @server, i32 0, i32 293), align 8
  call void @connClose(ptr noundef %0)
  store ptr null, ptr getelementptr inbounds (%struct.redisServer, ptr @server, i32 0, i32 293), align 8
  ret void
}

; Function Attrs: nounwind uwtable
define dso_local i32 @slaveIsInHandshakeState() #0 {
entry:
  %0 = load i32, ptr getelementptr inbounds (%struct.redisServer, ptr @server, i32 0, i32 289), align 4
  %cmp = icmp sge i32 %0, 3
  br i1 %cmp, label %land.rhs, label %land.end

land.rhs:                                         ; preds = %entry
  %1 = load i32, ptr getelementptr inbounds (%struct.redisServer, ptr @server, i32 0, i32 289), align 4
  %cmp1 = icmp sle i32 %1, 10
  br label %land.end

land.end:                                         ; preds = %land.rhs, %entry
  %2 = phi i1 [ false, %entry ], [ %cmp1, %land.rhs ]
  %land.ext = zext i1 %2 to i32
  ret i32 %land.ext
}

; Function Attrs: nounwind uwtable
define dso_local void @replicationDiscardCachedMaster() #0 {
entry:
  %0 = load ptr, ptr getelementptr inbounds (%struct.redisServer, ptr @server, i32 0, i32 287), align 8
  %cmp = icmp eq ptr %0, null
  br i1 %cmp, label %if.then, label %if.end

if.then:                                          ; preds = %entry
  br label %return

if.end:                                           ; preds = %entry
  br label %do.body

do.body:                                          ; preds = %if.end
  %1 = load i32, ptr getelementptr inbounds (%struct.redisServer, ptr @server, i32 0, i32 156), align 8
  %cmp1 = icmp slt i32 2, %1
  br i1 %cmp1, label %if.then2, label %if.end3

if.then2:                                         ; preds = %do.body
  br label %do.end

if.end3:                                          ; preds = %do.body
  call void (i32, ptr, ...) @_serverLog(i32 noundef 2, ptr noundef @.str.219)
  br label %do.end

do.end:                                           ; preds = %if.end3, %if.then2
  %2 = load ptr, ptr getelementptr inbounds (%struct.redisServer, ptr @server, i32 0, i32 287), align 8
  %flags = getelementptr inbounds %struct.client, ptr %2, i32 0, i32 1
  %3 = load i64, ptr %flags, align 8
  %and = and i64 %3, -3
  store i64 %and, ptr %flags, align 8
  %4 = load ptr, ptr getelementptr inbounds (%struct.redisServer, ptr @server, i32 0, i32 287), align 8
  call void @freeClient(ptr noundef %4)
  store ptr null, ptr getelementptr inbounds (%struct.redisServer, ptr @server, i32 0, i32 287), align 8
  br label %return

return:                                           ; preds = %do.end, %if.then
  ret void
}

; Function Attrs: nounwind uwtable
define dso_local i32 @cancelReplicationHandshake(i32 noundef %reconnect) #0 {
entry:
  %retval = alloca i32, align 4
  %reconnect.addr = alloca i32, align 4
  store i32 %reconnect, ptr %reconnect.addr, align 4
  %0 = load i32, ptr getelementptr inbounds (%struct.redisServer, ptr @server, i32 0, i32 289), align 4
  %cmp = icmp eq i32 %0, 11
  br i1 %cmp, label %if.then, label %if.else

if.then:                                          ; preds = %entry
  call void @replicationAbortSyncTransfer()
  store i32 1, ptr getelementptr inbounds (%struct.redisServer, ptr @server, i32 0, i32 289), align 4
  br label %if.end4

if.else:                                          ; preds = %entry
  %1 = load i32, ptr getelementptr inbounds (%struct.redisServer, ptr @server, i32 0, i32 289), align 4
  %cmp1 = icmp eq i32 %1, 2
  br i1 %cmp1, label %if.then2, label %lor.lhs.false

lor.lhs.false:                                    ; preds = %if.else
  %call = call i32 @slaveIsInHandshakeState()
  %tobool = icmp ne i32 %call, 0
  br i1 %tobool, label %if.then2, label %if.else3

if.then2:                                         ; preds = %lor.lhs.false, %if.else
  call void @undoConnectWithMaster()
  store i32 1, ptr getelementptr inbounds (%struct.redisServer, ptr @server, i32 0, i32 289), align 4
  br label %if.end

if.else3:                                         ; preds = %lor.lhs.false
  store i32 0, ptr %retval, align 4
  br label %return

if.end:                                           ; preds = %if.then2
  br label %if.end4

if.end4:                                          ; preds = %if.end, %if.then
  %2 = load i32, ptr %reconnect.addr, align 4
  %tobool5 = icmp ne i32 %2, 0
  br i1 %tobool5, label %if.end7, label %if.then6

if.then6:                                         ; preds = %if.end4
  store i32 1, ptr %retval, align 4
  br label %return

if.end7:                                          ; preds = %if.end4
  br label %do.body

do.body:                                          ; preds = %if.end7
  %3 = load i32, ptr getelementptr inbounds (%struct.redisServer, ptr @server, i32 0, i32 156), align 8
  %cmp8 = icmp slt i32 2, %3
  br i1 %cmp8, label %if.then9, label %if.end10

if.then9:                                         ; preds = %do.body
  br label %do.end

if.end10:                                         ; preds = %do.body
  %4 = load ptr, ptr getelementptr inbounds (%struct.redisServer, ptr @server, i32 0, i32 283), align 8
  %5 = load i32, ptr getelementptr inbounds (%struct.redisServer, ptr @server, i32 0, i32 284), align 8
  call void (i32, ptr, ...) @_serverLog(i32 noundef 2, ptr noundef @.str.192, ptr noundef %4, i32 noundef %5)
  br label %do.end

do.end:                                           ; preds = %if.end10, %if.then9
  %call11 = call i32 @connectWithMaster()
  store i32 1, ptr %retval, align 4
  br label %return

return:                                           ; preds = %do.end, %if.then6, %if.else3
  %6 = load i32, ptr %retval, align 4
  ret i32 %6
}

; Function Attrs: nounwind uwtable
define dso_local void @replicationSetMaster(ptr noundef %ip, i32 noundef %port) #0 {
entry:
  %ip.addr = alloca ptr, align 8
  %port.addr = alloca i32, align 4
  %was_master = alloca i32, align 4
  store ptr %ip, ptr %ip.addr, align 8
  store i32 %port, ptr %port.addr, align 4
  %0 = load ptr, ptr getelementptr inbounds (%struct.redisServer, ptr @server, i32 0, i32 283), align 8
  %cmp = icmp eq ptr %0, null
  %conv = zext i1 %cmp to i32
  store i32 %conv, ptr %was_master, align 4
  %1 = load ptr, ptr getelementptr inbounds (%struct.redisServer, ptr @server, i32 0, i32 283), align 8
  call void @sdsfree(ptr noundef %1)
  store ptr null, ptr getelementptr inbounds (%struct.redisServer, ptr @server, i32 0, i32 283), align 8
  %2 = load ptr, ptr getelementptr inbounds (%struct.redisServer, ptr @server, i32 0, i32 286), align 8
  %tobool = icmp ne ptr %2, null
  br i1 %tobool, label %if.then, label %if.end

if.then:                                          ; preds = %entry
  %3 = load ptr, ptr getelementptr inbounds (%struct.redisServer, ptr @server, i32 0, i32 286), align 8
  call void @freeClient(ptr noundef %3)
  br label %if.end

if.end:                                           ; preds = %if.then, %entry
  call void @disconnectAllBlockedClients()
  %4 = load ptr, ptr %ip.addr, align 8
  %call = call ptr @sdsnew(ptr noundef %4)
  store ptr %call, ptr getelementptr inbounds (%struct.redisServer, ptr @server, i32 0, i32 283), align 8
  %5 = load i32, ptr %port.addr, align 4
  store i32 %5, ptr getelementptr inbounds (%struct.redisServer, ptr @server, i32 0, i32 284), align 8
  %call1 = call i32 @setOOMScoreAdj(i32 noundef -1)
  %call2 = call i32 @cancelReplicationHandshake(i32 noundef 0)
  %6 = load i32, ptr %was_master, align 4
  %tobool3 = icmp ne i32 %6, 0
  br i1 %tobool3, label %if.then4, label %if.end5

if.then4:                                         ; preds = %if.end
  call void @replicationDiscardCachedMaster()
  call void @replicationCacheMasterUsingMyself()
  br label %if.end5

if.end5:                                          ; preds = %if.then4, %if.end
  call void @moduleFireServerEvent(i64 noundef 0, i32 noundef 1, ptr noundef null)
  %7 = load i32, ptr getelementptr inbounds (%struct.redisServer, ptr @server, i32 0, i32 289), align 4
  %cmp6 = icmp eq i32 %7, 12
  br i1 %cmp6, label %if.then8, label %if.end9

if.then8:                                         ; preds = %if.end5
  call void @moduleFireServerEvent(i64 noundef 7, i32 noundef 1, ptr noundef null)
  br label %if.end9

if.end9:                                          ; preds = %if.then8, %if.end5
  store i32 1, ptr getelementptr inbounds (%struct.redisServer, ptr @server, i32 0, i32 289), align 4
  br label %do.body

do.body:                                          ; preds = %if.end9
  %8 = load i32, ptr getelementptr inbounds (%struct.redisServer, ptr @server, i32 0, i32 156), align 8
  %cmp10 = icmp slt i32 2, %8
  br i1 %cmp10, label %if.then12, label %if.end13

if.then12:                                        ; preds = %do.body
  br label %do.end

if.end13:                                         ; preds = %do.body
  %9 = load ptr, ptr getelementptr inbounds (%struct.redisServer, ptr @server, i32 0, i32 283), align 8
  %10 = load i32, ptr getelementptr inbounds (%struct.redisServer, ptr @server, i32 0, i32 284), align 8
  call void (i32, ptr, ...) @_serverLog(i32 noundef 2, ptr noundef @.str.193, ptr noundef %9, i32 noundef %10)
  br label %do.end

do.end:                                           ; preds = %if.end13, %if.then12
  %call14 = call i32 @connectWithMaster()
  ret void
}