; Function Attrs: nounwind uwtable
define dso_local void @replicationSetMaster(ptr noundef %ip, i32 noundef %port) local_unnamed_addr #0 {
entry:
  %0 = load ptr, ptr getelementptr inbounds (%struct.redisServer, ptr @server, i64 0, i32 283), align 8
  %cmp = icmp eq ptr %0, null
  tail call void @sdsfree(ptr noundef %0) #21
  store ptr null, ptr getelementptr inbounds (%struct.redisServer, ptr @server, i64 0, i32 283), align 8
  %1 = load ptr, ptr getelementptr inbounds (%struct.redisServer, ptr @server, i64 0, i32 286), align 8
  %tobool.not = icmp eq ptr %1, null
  br i1 %tobool.not, label %if.end, label %if.then

if.then:                                          ; preds = %entry
  tail call void @freeClient(ptr noundef nonnull %1) #21
  br label %if.end

if.end:                                           ; preds = %if.then, %entry
  tail call void @disconnectAllBlockedClients() #21
  %call = tail call ptr @sdsnew(ptr noundef %ip) #21
  store ptr %call, ptr getelementptr inbounds (%struct.redisServer, ptr @server, i64 0, i32 283), align 8
  store i32 %port, ptr getelementptr inbounds (%struct.redisServer, ptr @server, i64 0, i32 284), align 8
  %call1 = tail call i32 @setOOMScoreAdj(i32 noundef -1) #21
  %2 = load i32, ptr getelementptr inbounds (%struct.redisServer, ptr @server, i64 0, i32 289), align 4
  switch i32 %2, label %lor.lhs.false.i [
    i32 11, label %if.then.i
    i32 2, label %if.then2.i
  ]

if.then.i:                                        ; preds = %if.end
  tail call void @replicationAbortSyncTransfer()
  br label %if.end4.i

lor.lhs.false.i:                                  ; preds = %if.end
  %3 = add i32 %2, -11
  %4 = icmp ult i32 %3, -8
  br i1 %4, label %cancelReplicationHandshake.exit, label %if.then2.i

if.then2.i:                                       ; preds = %lor.lhs.false.i, %if.end
  %5 = load ptr, ptr getelementptr inbounds (%struct.redisServer, ptr @server, i64 0, i32 293), align 8
  %6 = load ptr, ptr %5, align 8
  %close.i.i.i = getelementptr inbounds i8, ptr %6, i64 96
  %7 = load ptr, ptr %close.i.i.i, align 8
  tail call void %7(ptr noundef nonnull %5) #21
  store ptr null, ptr getelementptr inbounds (%struct.redisServer, ptr @server, i64 0, i32 293), align 8
  br label %if.end4.i

if.end4.i:                                        ; preds = %if.then2.i, %if.then.i
  store i32 1, ptr getelementptr inbounds (%struct.redisServer, ptr @server, i64 0, i32 289), align 4
  br label %cancelReplicationHandshake.exit

cancelReplicationHandshake.exit:                  ; preds = %lor.lhs.false.i, %if.end4.i
  br i1 %cmp, label %if.then4, label %if.end5

if.then4:                                         ; preds = %cancelReplicationHandshake.exit
  %8 = load ptr, ptr getelementptr inbounds (%struct.redisServer, ptr @server, i64 0, i32 287), align 8
  %cmp.i = icmp eq ptr %8, null
  br i1 %cmp.i, label %replicationDiscardCachedMaster.exit, label %do.body.i

do.body.i:                                        ; preds = %if.then4
  %9 = load i32, ptr getelementptr inbounds (%struct.redisServer, ptr @server, i64 0, i32 156), align 8
  %cmp1.i = icmp sgt i32 %9, 2
  br i1 %cmp1.i, label %do.end.i, label %if.end3.i

if.end3.i:                                        ; preds = %do.body.i
  tail call void (i32, ptr, ...) @_serverLog(i32 noundef 2, ptr noundef nonnull @.str.219) #21
  %.pre.i = load ptr, ptr getelementptr inbounds (%struct.redisServer, ptr @server, i64 0, i32 287), align 8
  br label %do.end.i

do.end.i:                                         ; preds = %if.end3.i, %do.body.i
  %10 = phi ptr [ %8, %do.body.i ], [ %.pre.i, %if.end3.i ]
  %flags.i = getelementptr inbounds i8, ptr %10, i64 8
  %11 = load i64, ptr %flags.i, align 8
  %and.i = and i64 %11, -3
  store i64 %and.i, ptr %flags.i, align 8
  %12 = load ptr, ptr getelementptr inbounds (%struct.redisServer, ptr @server, i64 0, i32 287), align 8
  tail call void @freeClient(ptr noundef %12) #21
  store ptr null, ptr getelementptr inbounds (%struct.redisServer, ptr @server, i64 0, i32 287), align 8
  br label %replicationDiscardCachedMaster.exit

replicationDiscardCachedMaster.exit:              ; preds = %if.then4, %do.end.i
  tail call void @replicationCacheMasterUsingMyself()
  br label %if.end5

if.end5:                                          ; preds = %replicationDiscardCachedMaster.exit, %cancelReplicationHandshake.exit
  tail call void @moduleFireServerEvent(i64 noundef 0, i32 noundef 1, ptr noundef null) #21
  %13 = load i32, ptr getelementptr inbounds (%struct.redisServer, ptr @server, i64 0, i32 289), align 4
  %cmp6 = icmp eq i32 %13, 12
  br i1 %cmp6, label %if.then8, label %if.end9

if.then8:                                         ; preds = %if.end5
  tail call void @moduleFireServerEvent(i64 noundef 7, i32 noundef 1, ptr noundef null) #21
  br label %if.end9

if.end9:                                          ; preds = %if.then8, %if.end5
  store i32 1, ptr getelementptr inbounds (%struct.redisServer, ptr @server, i64 0, i32 289), align 4
  %14 = load i32, ptr getelementptr inbounds (%struct.redisServer, ptr @server, i64 0, i32 156), align 8
  %cmp10 = icmp sgt i32 %14, 2
  br i1 %cmp10, label %do.end, label %if.end13

if.end13:                                         ; preds = %if.end9
  %15 = load ptr, ptr getelementptr inbounds (%struct.redisServer, ptr @server, i64 0, i32 283), align 8
  %16 = load i32, ptr getelementptr inbounds (%struct.redisServer, ptr @server, i64 0, i32 284), align 8
  tail call void (i32, ptr, ...) @_serverLog(i32 noundef 2, ptr noundef nonnull @.str.193, ptr noundef %15, i32 noundef %16) #21
  br label %do.end

do.end:                                           ; preds = %if.end9, %if.end13
  %call14 = tail call i32 @connectWithMaster(), !range !18
  ret void
}